target datalayout = "e-m:e-p270:32:32-p271:32:32-p272:64:64-i64:64-i128:128-f80:128-n8:16:32:64-S128"
target triple = "x86_64-pc-linux-gnu"

%struct.Abc_Frame_t_ = type { ptr, ptr, ptr, ptr, ptr, ptr, ptr, ptr, ptr, ptr, i32, i32, i32, i32, i32, ptr, float, float, i32, i32, ptr, ptr, ptr, double, double, ptr, ptr, ptr, ptr, ptr, ptr, ptr, ptr, ptr, ptr, ptr, ptr, float, ptr, i32, ptr, ptr, ptr, ptr, ptr, i32, i32, i32, i32, i32, i32, ptr, ptr, ptr, ptr, ptr, ptr, i32, i32, ptr, ptr, ptr, ptr, ptr, ptr, ptr, ptr, ptr, ptr, ptr, ptr, ptr, ptr, ptr, ptr, ptr, ptr, ptr, ptr, ptr, ptr, ptr, ptr, ptr, ptr, ptr, ptr, ptr, ptr }

@globalUtilOptind = external global i32, align 4
@.str.85 = private unnamed_addr constant [7 x i8] c"genlib\00", align 1
@.str.87 = private unnamed_addr constant [4 x i8] c"lib\00", align 1
@.str.98 = private unnamed_addr constant [4 x i8] c"dsd\00", align 1
@.str.142 = private unnamed_addr constant [16 x i8] c"Empty network.\0A\00", align 1
@.str.165 = private unnamed_addr constant [2 x i8] c"h\00", align 1
@.str.227 = private unnamed_addr constant [16 x i8] c"write_genlib %s\00", align 1
@.str.228 = private unnamed_addr constant [13 x i8] c"write_lib %s\00", align 1
@.str.229 = private unnamed_addr constant [12 x i8] c"dsd_save %s\00", align 1
@.str.230 = private unnamed_addr constant [26 x i8] c"usage: write [-h] <file>\0A\00", align 1
@.str.231 = private unnamed_addr constant [61 x i8] c"\09         writes the current network into <file> by calling\0A\00", align 1
@.str.232 = private unnamed_addr constant [59 x i8] c"\09         the writer that matches the extension of <file>\0A\00", align 1
@.str.233 = private unnamed_addr constant [34 x i8] c"\09-h     : print the help massage\0A\00", align 1
@.str.234 = private unnamed_addr constant [41 x i8] c"\09file   : the name of the file to write\0A\00", align 1

; Function Attrs: nounwind uwtable
define internal i32 @IoCommandWrite(ptr noundef %0, i32 noundef %1, ptr noundef %2) #0 {
  %4 = alloca i32, align 4
  %5 = alloca ptr, align 8
  %6 = alloca i32, align 4
  %7 = alloca ptr, align 8
  %8 = alloca [1000 x i8], align 16
  %9 = alloca ptr, align 8
  %10 = alloca i32, align 4
  %11 = alloca i32, align 4
  store ptr %0, ptr %5, align 8, !tbaa !3
  store i32 %1, ptr %6, align 4, !tbaa !8
  store ptr %2, ptr %7, align 8, !tbaa !10
  call void @llvm.lifetime.start.p0(i64 1000, ptr %8) #11
  call void @llvm.lifetime.start.p0(i64 8, ptr %9) #11
  call void @llvm.lifetime.start.p0(i64 4, ptr %10) #11
  call void (...) @Extra_UtilGetoptReset()
  br label %12

12:                                               ; preds = %3
  %13 = load i32, ptr %6, align 4, !tbaa !8
  %14 = load ptr, ptr %7, align 8, !tbaa !10
  %15 = call i32 @Extra_UtilGetopt(i32 noundef %13, ptr noundef %14, ptr noundef @.str.165)
  store i32 %15, ptr %10, align 4, !tbaa !8
  %16 = icmp ne i32 %15, -1
  br i1 %16, label %17, label %21

17:                                               ; preds = %12
  %18 = load i32, ptr %10, align 4, !tbaa !8
  switch i32 %18, label %20 [
    i32 104, label %19
  ]

19:                                               ; preds = %17
  br label %87

20:                                               ; preds = %17
  br label %87

21:                                               ; preds = %12
  %22 = load i32, ptr %6, align 4, !tbaa !8
  %23 = load i32, ptr @globalUtilOptind, align 4, !tbaa !8
  %24 = add nsw i32 %23, 1
  %25 = icmp ne i32 %22, %24
  br i1 %25, label %26, label %27

26:                                               ; preds = %21
  br label %87

27:                                               ; preds = %21
  %28 = load ptr, ptr %7, align 8, !tbaa !10
  %29 = load i32, ptr @globalUtilOptind, align 4, !tbaa !8
  %30 = sext i32 %29 to i64
  %31 = getelementptr inbounds ptr, ptr %28, i64 %30
  %32 = load ptr, ptr %31, align 8, !tbaa !14
  store ptr %32, ptr %9, align 8, !tbaa !14
  %33 = getelementptr inbounds [1000 x i8], ptr %8, i64 0, i64 0
  store i8 0, ptr %33, align 16, !tbaa !16
  %34 = load ptr, ptr %9, align 8, !tbaa !14
  %35 = call ptr @Extra_FileNameExtension(ptr noundef %34)
  %36 = call i32 @strcmp(ptr noundef %35, ptr noundef @.str.85) #12
  %37 = icmp ne i32 %36, 0
  br i1 %37, label %42, label %38

38:                                               ; preds = %27
  %39 = getelementptr inbounds [1000 x i8], ptr %8, i64 0, i64 0
  %40 = load ptr, ptr %9, align 8, !tbaa !14
  %41 = call i32 (ptr, ptr, ...) @sprintf(ptr noundef %39, ptr noundef @.str.227, ptr noundef %40) #11
  br label %62

42:                                               ; preds = %27
  %43 = load ptr, ptr %9, align 8, !tbaa !14
  %44 = call ptr @Extra_FileNameExtension(ptr noundef %43)
  %45 = call i32 @strcmp(ptr noundef %44, ptr noundef @.str.87) #12
  %46 = icmp ne i32 %45, 0
  br i1 %46, label %51, label %47

47:                                               ; preds = %42
  %48 = getelementptr inbounds [1000 x i8], ptr %8, i64 0, i64 0
  %49 = load ptr, ptr %9, align 8, !tbaa !14
  %50 = call i32 (ptr, ptr, ...) @sprintf(ptr noundef %48, ptr noundef @.str.228, ptr noundef %49) #11
  br label %61

51:                                               ; preds = %42
  %52 = load ptr, ptr %9, align 8, !tbaa !14
  %53 = call ptr @Extra_FileNameExtension(ptr noundef %52)
  %54 = call i32 @strcmp(ptr noundef %53, ptr noundef @.str.98) #12
  %55 = icmp ne i32 %54, 0
  br i1 %55, label %60, label %56

56:                                               ; preds = %51
  %57 = getelementptr inbounds [1000 x i8], ptr %8, i64 0, i64 0
  %58 = load ptr, ptr %9, align 8, !tbaa !14
  %59 = call i32 (ptr, ptr, ...) @sprintf(ptr noundef %57, ptr noundef @.str.229, ptr noundef %58) #11
  br label %60

60:                                               ; preds = %56, %51
  br label %61

61:                                               ; preds = %60, %47
  br label %62

62:                                               ; preds = %61, %38
  %63 = getelementptr inbounds [1000 x i8], ptr %8, i64 0, i64 0
  %64 = load i8, ptr %63, align 16, !tbaa !16
  %65 = icmp ne i8 %64, 0
  br i1 %65, label %66, label %70

66:                                               ; preds = %62
  %67 = load ptr, ptr %5, align 8, !tbaa !3
  %68 = getelementptr inbounds [1000 x i8], ptr %8, i64 0, i64 0
  %69 = call i32 @Cmd_CommandExecute(ptr noundef %67, ptr noundef %68)
  store i32 0, ptr %4, align 4
  store i32 1, ptr %11, align 4
  br label %108

70:                                               ; preds = %62
  %71 = load ptr, ptr %5, align 8, !tbaa !3
  %72 = getelementptr inbounds nuw %struct.Abc_Frame_t_, ptr %71, i32 0, i32 6
  %73 = load ptr, ptr %72, align 8, !tbaa !44
  %74 = icmp eq ptr %73, null
  br i1 %74, label %75, label %80

75:                                               ; preds = %70
  %76 = load ptr, ptr %5, align 8, !tbaa !3
  %77 = getelementptr inbounds nuw %struct.Abc_Frame_t_, ptr %76, i32 0, i32 20
  %78 = load ptr, ptr %77, align 8, !tbaa !45
  %79 = call i32 (ptr, ptr, ...) @fprintf(ptr noundef %78, ptr noundef @.str.142) #11
  store i32 0, ptr %4, align 4
  store i32 1, ptr %11, align 4
  br label %108

80:                                               ; preds = %70
  %81 = load ptr, ptr %5, align 8, !tbaa !3
  %82 = getelementptr inbounds nuw %struct.Abc_Frame_t_, ptr %81, i32 0, i32 6
  %83 = load ptr, ptr %82, align 8, !tbaa !44
  %84 = load ptr, ptr %9, align 8, !tbaa !14
  %85 = load ptr, ptr %9, align 8, !tbaa !14
  %86 = call i32 @Io_ReadFileType(ptr noundef %85)
  call void @Io_Write(ptr noundef %83, ptr noundef %84, i32 noundef %86)
  store i32 0, ptr %4, align 4
  store i32 1, ptr %11, align 4
  br label %108

87:                                               ; preds = %26, %20, %19
  %88 = load ptr, ptr %5, align 8, !tbaa !3
  %89 = getelementptr inbounds nuw %struct.Abc_Frame_t_, ptr %88, i32 0, i32 21
  %90 = load ptr, ptr %89, align 8, !tbaa !24
  %91 = call i32 (ptr, ptr, ...) @fprintf(ptr noundef %90, ptr noundef @.str.230) #11
  %92 = load ptr, ptr %5, align 8, !tbaa !3
  %93 = getelementptr inbounds nuw %struct.Abc_Frame_t_, ptr %92, i32 0, i32 21
  %94 = load ptr, ptr %93, align 8, !tbaa !24
  %95 = call i32 (ptr, ptr, ...) @fprintf(ptr noundef %94, ptr noundef @.str.231) #11
  %96 = load ptr, ptr %5, align 8, !tbaa !3
  %97 = getelementptr inbounds nuw %struct.Abc_Frame_t_, ptr %96, i32 0, i32 21
  %98 = load ptr, ptr %97, align 8, !tbaa !24
  %99 = call i32 (ptr, ptr, ...) @fprintf(ptr noundef %98, ptr noundef @.str.232) #11
  %100 = load ptr, ptr %5, align 8, !tbaa !3
  %101 = getelementptr inbounds nuw %struct.Abc_Frame_t_, ptr %100, i32 0, i32 21
  %102 = load ptr, ptr %101, align 8, !tbaa !24
  %103 = call i32 (ptr, ptr, ...) @fprintf(ptr noundef %102, ptr noundef @.str.233) #11
  %104 = load ptr, ptr %5, align 8, !tbaa !3
  %105 = getelementptr inbounds nuw %struct.Abc_Frame_t_, ptr %104, i32 0, i32 21
  %106 = load ptr, ptr %105, align 8, !tbaa !24
  %107 = call i32 (ptr, ptr, ...) @fprintf(ptr noundef %106, ptr noundef @.str.234) #11
  store i32 1, ptr %4, align 4
  store i32 1, ptr %11, align 4
  br label %108

108:                                              ; preds = %87, %80, %75, %66
  call void @llvm.lifetime.end.p0(i64 4, ptr %10) #11
  call void @llvm.lifetime.end.p0(i64 8, ptr %9) #11
  call void @llvm.lifetime.end.p0(i64 1000, ptr %8) #11
  %109 = load i32, ptr %4, align 4
  ret i32 %109
}