; Function Attrs: nounwind uwtable
define internal range(i32 0, 2) i32 @IoCommandWrite(ptr noundef %0, i32 noundef %1, ptr noundef %2) #0 {
  %4 = alloca [1000 x i8], align 16
  call void @llvm.lifetime.start.p0(i64 1000, ptr nonnull %4) #18
  tail call void (...) @Extra_UtilGetoptReset() #18
  %5 = tail call i32 @Extra_UtilGetopt(i32 noundef %1, ptr noundef %2, ptr noundef nonnull @.str.165) #18
  %.not = icmp eq i32 %5, -1
  br i1 %.not, label %6, label %36

6:                                                ; preds = %3
  %7 = load i32, ptr @globalUtilOptind, align 4, !tbaa !3
  %8 = add nsw i32 %7, 1
  %.not22 = icmp eq i32 %1, %8
  br i1 %.not22, label %9, label %36

9:                                                ; preds = %6
  %10 = sext i32 %7 to i64
  %11 = getelementptr inbounds ptr, ptr %2, i64 %10
  %12 = load ptr, ptr %11, align 8, !tbaa !9
  store i8 0, ptr %4, align 16, !tbaa !12
  %13 = tail call ptr @Extra_FileNameExtension(ptr noundef %12) #18
  %14 = tail call i32 @strcmp(ptr noundef nonnull dereferenceable(1) %13, ptr noundef nonnull dereferenceable(7) @.str.85) #19
  %.not23 = icmp eq i32 %14, 0
  br i1 %.not23, label %.sink.split, label %15

15:                                               ; preds = %9
  %16 = tail call ptr @Extra_FileNameExtension(ptr noundef %12) #18
  %17 = tail call i32 @strcmp(ptr noundef nonnull dereferenceable(1) %16, ptr noundef nonnull dereferenceable(4) @.str.87) #19
  %.not24 = icmp eq i32 %17, 0
  br i1 %.not24, label %.sink.split, label %18

18:                                               ; preds = %15
  %19 = tail call ptr @Extra_FileNameExtension(ptr noundef %12) #18
  %20 = tail call i32 @strcmp(ptr noundef nonnull dereferenceable(1) %19, ptr noundef nonnull dereferenceable(4) @.str.98) #19
  %.not25 = icmp eq i32 %20, 0
  br i1 %.not25, label %.sink.split, label %22

.sink.split:                                      ; preds = %18, %15, %9
  %.str.228.sink = phi ptr [ @.str.227, %9 ], [ @.str.228, %15 ], [ @.str.229, %18 ]
  %21 = call i32 (ptr, ptr, ...) @sprintf(ptr noundef nonnull dereferenceable(1) %4, ptr noundef nonnull dereferenceable(1) %.str.228.sink, ptr noundef %12) #18
  br label %22

22:                                               ; preds = %.sink.split, %18
  %23 = load i8, ptr %4, align 16, !tbaa !12
  %.not26 = icmp eq i8 %23, 0
  br i1 %.not26, label %26, label %24

24:                                               ; preds = %22
  %25 = call i32 @Cmd_CommandExecute(ptr noundef %0, ptr noundef nonnull %4) #18
  br label %48

26:                                               ; preds = %22
  %27 = getelementptr inbounds nuw i8, ptr %0, i64 48
  %28 = load ptr, ptr %27, align 8, !tbaa !49
  %29 = icmp eq ptr %28, null
  br i1 %29, label %30, label %34

30:                                               ; preds = %26
  %31 = getelementptr inbounds nuw i8, ptr %0, i64 128
  %32 = load ptr, ptr %31, align 8, !tbaa !50
  %33 = tail call i64 @fwrite(ptr nonnull @.str.142, i64 15, i64 1, ptr %32)
  br label %48

34:                                               ; preds = %26
  %35 = tail call i32 @Io_ReadFileType(ptr noundef %12) #18
  tail call void @Io_Write(ptr noundef nonnull %28, ptr noundef %12, i32 noundef %35) #18
  br label %48

36:                                               ; preds = %6, %3
  %37 = getelementptr inbounds nuw i8, ptr %0, i64 136
  %38 = load ptr, ptr %37, align 8, !tbaa !34
  %39 = tail call i64 @fwrite(ptr nonnull @.str.230, i64 25, i64 1, ptr %38)
  %40 = load ptr, ptr %37, align 8, !tbaa !34
  %41 = tail call i64 @fwrite(ptr nonnull @.str.231, i64 60, i64 1, ptr %40)
  %42 = load ptr, ptr %37, align 8, !tbaa !34
  %43 = tail call i64 @fwrite(ptr nonnull @.str.232, i64 58, i64 1, ptr %42)
  %44 = load ptr, ptr %37, align 8, !tbaa !34
  %45 = tail call i64 @fwrite(ptr nonnull @.str.233, i64 33, i64 1, ptr %44)
  %46 = load ptr, ptr %37, align 8, !tbaa !34
  %47 = tail call i64 @fwrite(ptr nonnull @.str.234, i64 40, i64 1, ptr %46)
  br label %48

48:                                               ; preds = %36, %34, %30, %24
  %.0 = phi i32 [ 1, %36 ], [ 0, %24 ], [ 0, %30 ], [ 0, %34 ]
  call void @llvm.lifetime.end.p0(i64 1000, ptr nonnull %4) #18
  ret i32 %.0
}